; Function Attrs: mustprogress nounwind uwtable
define hidden void @_ZN12LIR_OpReturnC2E7LIR_Opr(ptr nocapture noundef nonnull writeonly align 8 dereferenceable(72) %0, i64 %1) unnamed_addr #1 align 2 {
  %.sroa.0.0.copyload.i = load i64, ptr @_ZN11LIR_OprFact10illegalOprE, align 8
  %3 = getelementptr inbounds i8, ptr %0, i64 8
  store i64 %.sroa.0.0.copyload.i, ptr %3, align 8
  %4 = getelementptr inbounds i8, ptr %0, i64 16
  store i16 25, ptr %4, align 8
  %5 = getelementptr inbounds i8, ptr %0, i64 18
  store i16 0, ptr %5, align 2
  %6 = getelementptr inbounds i8, ptr %0, i64 24
  store ptr null, ptr %6, align 8
  %7 = getelementptr inbounds i8, ptr %0, i64 32
  store i32 -1, ptr %7, align 8
  %8 = getelementptr inbounds i8, ptr %0, i64 36
  store i32 0, ptr %8, align 4
  %9 = getelementptr inbounds i8, ptr %0, i64 40
  store ptr null, ptr %9, align 8
  %10 = getelementptr inbounds i8, ptr %0, i64 48
  store i64 %1, ptr %10, align 8
  %11 = getelementptr inbounds i8, ptr %0, i64 56
  store i8 99, ptr %11, align 8
  %12 = getelementptr inbounds i8, ptr %0, i64 60
  store i32 0, ptr %12, align 4
  store ptr getelementptr inbounds inrange(-16, 248) (i8, ptr @_ZTV12LIR_OpReturn, i64 16), ptr %0, align 8
  %13 = getelementptr inbounds i8, ptr %0, i64 64
  store ptr null, ptr %13, align 8
  %14 = tail call align 8 ptr @llvm.threadlocal.address.p0(ptr align 8 @_ZN6Thread12_thr_currentE)
  %15 = load ptr, ptr %14, align 8
  %16 = getelementptr inbounds i8, ptr %15, i64 1808
  %17 = load ptr, ptr %16, align 8
  %18 = getelementptr inbounds i8, ptr %17, i64 128
  %19 = load ptr, ptr %18, align 8
  %20 = load ptr, ptr %19, align 8
  %21 = getelementptr inbounds i8, ptr %20, i64 40
  %22 = load ptr, ptr %21, align 8
  %23 = getelementptr inbounds i8, ptr %20, i64 32
  %24 = load ptr, ptr %23, align 8
  %25 = ptrtoint ptr %22 to i64
  %26 = ptrtoint ptr %24 to i64
  %27 = sub i64 %25, %26
  %.not.i.i.i = icmp ult i64 %27, 96
  br i1 %.not.i.i.i, label %30, label %28

28:                                               ; preds = %2
  %29 = getelementptr inbounds i8, ptr %24, i64 96
  store ptr %29, ptr %23, align 8
  br label %_ZN22CompilationResourceObjnwEm.exit

30:                                               ; preds = %2
  %31 = tail call noundef ptr @_ZN5Arena4growEmN17AllocFailStrategy13AllocFailEnumE(ptr noundef nonnull align 8 dereferenceable(48) %20, i64 noundef 96, i32 noundef 0) #11
  br label %_ZN22CompilationResourceObjnwEm.exit

_ZN22CompilationResourceObjnwEm.exit:             ; preds = %28, %30
  %.0.i.i.i = phi ptr [ %24, %28 ], [ %31, %30 ]
  %32 = icmp eq ptr %.0.i.i.i, null
  br i1 %32, label %43, label %33

33:                                               ; preds = %_ZN22CompilationResourceObjnwEm.exit
  %34 = getelementptr inbounds i8, ptr %.0.i.i.i, i64 8
  store i32 -1, ptr %34, align 8
  %35 = getelementptr inbounds i8, ptr %.0.i.i.i, i64 28
  store i32 0, ptr %35, align 4
  %36 = getelementptr inbounds i8, ptr %.0.i.i.i, i64 32
  store ptr null, ptr %36, align 8
  %37 = getelementptr inbounds i8, ptr %.0.i.i.i, i64 40
  store i8 0, ptr %37, align 8
  %38 = getelementptr inbounds i8, ptr %.0.i.i.i, i64 48
  store i32 -1, ptr %38, align 8
  %39 = getelementptr inbounds i8, ptr %.0.i.i.i, i64 68
  store i32 0, ptr %39, align 4
  %40 = getelementptr inbounds i8, ptr %.0.i.i.i, i64 72
  store ptr null, ptr %40, align 8
  %41 = getelementptr inbounds i8, ptr %.0.i.i.i, i64 80
  store i8 0, ptr %41, align 8
  store ptr getelementptr inbounds inrange(-16, 48) (i8, ptr @_ZTV19C1SafepointPollStub, i64 16), ptr %.0.i.i.i, align 8
  %42 = getelementptr inbounds i8, ptr %.0.i.i.i, i64 88
  store i64 0, ptr %42, align 8
  br label %43

43:                                               ; preds = %33, %_ZN22CompilationResourceObjnwEm.exit
  store ptr %.0.i.i.i, ptr %13, align 8
  ret void
}